target datalayout = "e-m:e-p270:32:32-p271:32:32-p272:64:64-i64:64-i128:128-f80:128-n8:16:32:64-S128"
target triple = "x86_64-pc-linux-gnu"

%struct.RedisModuleCtx = type { ptr, ptr, ptr, ptr, ptr, i32, i32, i32, ptr, i32, ptr, ptr, ptr, ptr, i64, ptr }
%struct.RedisModuleKey = type { ptr, ptr, ptr, ptr, ptr, i32, %union.anon }
%union.anon = type { %struct.anon }
%struct.anon = type { %struct.listTypeEntry, i64 }
%struct.listTypeEntry = type { ptr, ptr, %struct.quicklistEntry }
%struct.quicklistEntry = type { ptr, ptr, ptr, ptr, i64, i64, i32 }

; Function Attrs: nounwind uwtable
define dso_local i32 @RM_DeleteKey(ptr noundef %0) #0 {
  %2 = alloca i32, align 4
  %3 = alloca ptr, align 8
  store ptr %0, ptr %3, align 8, !tbaa !64
  %4 = load ptr, ptr %3, align 8, !tbaa !64
  %5 = getelementptr inbounds nuw %struct.RedisModuleKey, ptr %4, i32 0, i32 5
  %6 = load i32, ptr %5, align 8, !tbaa !66
  %7 = and i32 %6, 2
  %8 = icmp ne i32 %7, 0
  br i1 %8, label %10, label %9

9:                                                ; preds = %1
  store i32 1, ptr %2, align 4
  br label %26

10:                                               ; preds = %1
  %11 = load ptr, ptr %3, align 8, !tbaa !64
  %12 = getelementptr inbounds nuw %struct.RedisModuleKey, ptr %11, i32 0, i32 3
  %13 = load ptr, ptr %12, align 8, !tbaa !68
  %14 = icmp ne ptr %13, null
  br i1 %14, label %15, label %25

15:                                               ; preds = %10
  %16 = load ptr, ptr %3, align 8, !tbaa !64
  %17 = getelementptr inbounds nuw %struct.RedisModuleKey, ptr %16, i32 0, i32 1
  %18 = load ptr, ptr %17, align 8, !tbaa !70
  %19 = load ptr, ptr %3, align 8, !tbaa !64
  %20 = getelementptr inbounds nuw %struct.RedisModuleKey, ptr %19, i32 0, i32 2
  %21 = load ptr, ptr %20, align 8, !tbaa !71
  %22 = call i32 @dbDelete(ptr noundef %18, ptr noundef %21)
  %23 = load ptr, ptr %3, align 8, !tbaa !64
  %24 = getelementptr inbounds nuw %struct.RedisModuleKey, ptr %23, i32 0, i32 3
  store ptr null, ptr %24, align 8, !tbaa !68
  br label %25

25:                                               ; preds = %15, %10
  store i32 0, ptr %2, align 4
  br label %26

26:                                               ; preds = %25, %9
  %27 = load i32, ptr %2, align 4
  ret i32 %27
}

; Function Attrs: nounwind uwtable
define dso_local i32 @RM_StringSet(ptr noundef %0, ptr noundef %1) #0 {
  %3 = alloca i32, align 4
  %4 = alloca ptr, align 8
  %5 = alloca ptr, align 8
  store ptr %0, ptr %4, align 8, !tbaa !64
  store ptr %1, ptr %5, align 8, !tbaa !69
  %6 = load ptr, ptr %4, align 8, !tbaa !64
  %7 = getelementptr inbounds nuw %struct.RedisModuleKey, ptr %6, i32 0, i32 5
  %8 = load i32, ptr %7, align 8, !tbaa !66
  %9 = and i32 %8, 2
  %10 = icmp ne i32 %9, 0
  br i1 %10, label %11, label %16

11:                                               ; preds = %2
  %12 = load ptr, ptr %4, align 8, !tbaa !64
  %13 = getelementptr inbounds nuw %struct.RedisModuleKey, ptr %12, i32 0, i32 4
  %14 = load ptr, ptr %13, align 8, !tbaa !73
  %15 = icmp ne ptr %14, null
  br i1 %15, label %16, label %17

16:                                               ; preds = %11, %2
  store i32 1, ptr %3, align 4
  br label %35

17:                                               ; preds = %11
  %18 = load ptr, ptr %4, align 8, !tbaa !64
  %19 = call i32 @RM_DeleteKey(ptr noundef %18)
  %20 = load ptr, ptr %4, align 8, !tbaa !64
  %21 = getelementptr inbounds nuw %struct.RedisModuleKey, ptr %20, i32 0, i32 0
  %22 = load ptr, ptr %21, align 8, !tbaa !293
  %23 = getelementptr inbounds nuw %struct.RedisModuleCtx, ptr %22, i32 0, i32 2
  %24 = load ptr, ptr %23, align 8, !tbaa !106
  %25 = load ptr, ptr %4, align 8, !tbaa !64
  %26 = getelementptr inbounds nuw %struct.RedisModuleKey, ptr %25, i32 0, i32 1
  %27 = load ptr, ptr %26, align 8, !tbaa !70
  %28 = load ptr, ptr %4, align 8, !tbaa !64
  %29 = getelementptr inbounds nuw %struct.RedisModuleKey, ptr %28, i32 0, i32 2
  %30 = load ptr, ptr %29, align 8, !tbaa !71
  %31 = load ptr, ptr %5, align 8, !tbaa !69
  call void @setKey(ptr noundef %24, ptr noundef %27, ptr noundef %30, ptr noundef %31, i32 noundef 2)
  %32 = load ptr, ptr %5, align 8, !tbaa !69
  %33 = load ptr, ptr %4, align 8, !tbaa !64
  %34 = getelementptr inbounds nuw %struct.RedisModuleKey, ptr %33, i32 0, i32 3
  store ptr %32, ptr %34, align 8, !tbaa !68
  store i32 0, ptr %3, align 4
  br label %35

35:                                               ; preds = %17, %16
  %36 = load i32, ptr %3, align 4
  ret i32 %36
}