; Function Attrs: nounwind uwtable
define dso_local range(i32 0, 2) i32 @RM_StringSet(ptr noundef captures(none) %0, ptr noundef %1) #0 {
  %3 = getelementptr inbounds nuw i8, ptr %0, i64 40
  %4 = load i32, ptr %3, align 8, !tbaa !55
  %5 = and i32 %4, 2
  %.not = icmp eq i32 %5, 0
  br i1 %.not, label %25, label %6

6:                                                ; preds = %2
  %7 = getelementptr inbounds nuw i8, ptr %0, i64 32
  %8 = load ptr, ptr %7, align 8, !tbaa !61
  %.not9 = icmp eq ptr %8, null
  br i1 %.not9, label %9, label %25

9:                                                ; preds = %6
  %10 = getelementptr inbounds nuw i8, ptr %0, i64 24
  %11 = load ptr, ptr %10, align 8, !tbaa !57
  %.not5.i = icmp eq ptr %11, null
  br i1 %.not5.i, label %RM_DeleteKey.exit, label %12

12:                                               ; preds = %9
  %13 = getelementptr inbounds nuw i8, ptr %0, i64 8
  %14 = load ptr, ptr %13, align 8, !tbaa !58
  %15 = getelementptr inbounds nuw i8, ptr %0, i64 16
  %16 = load ptr, ptr %15, align 8, !tbaa !59
  %17 = tail call i32 @dbDelete(ptr noundef %14, ptr noundef %16) #35
  store ptr null, ptr %10, align 8, !tbaa !57
  br label %RM_DeleteKey.exit

RM_DeleteKey.exit:                                ; preds = %9, %12
  %18 = load ptr, ptr %0, align 8, !tbaa !101
  %19 = getelementptr inbounds nuw i8, ptr %18, i64 16
  %20 = load ptr, ptr %19, align 8, !tbaa !95
  %21 = getelementptr inbounds nuw i8, ptr %0, i64 8
  %22 = load ptr, ptr %21, align 8, !tbaa !58
  %23 = getelementptr inbounds nuw i8, ptr %0, i64 16
  %24 = load ptr, ptr %23, align 8, !tbaa !59
  tail call void @setKey(ptr noundef %20, ptr noundef %22, ptr noundef %24, ptr noundef %1, i32 noundef 2) #35
  store ptr %1, ptr %10, align 8, !tbaa !57
  br label %25

25:                                               ; preds = %2, %6, %RM_DeleteKey.exit
  %.0 = phi i32 [ 0, %RM_DeleteKey.exit ], [ 1, %6 ], [ 1, %2 ]
  ret i32 %.0
}